target datalayout = "e-m:e-p270:32:32-p271:32:32-p272:64:64-i64:64-i128:128-f80:128-n8:16:32:64-S128"
target triple = "x86_64-pc-linux-gnu"

%struct._typeobject = type { %struct.PyVarObject, ptr, i64, i64, ptr, i64, ptr, ptr, ptr, ptr, ptr, ptr, ptr, ptr, ptr, ptr, ptr, ptr, ptr, i64, ptr, ptr, ptr, ptr, i64, ptr, ptr, ptr, ptr, ptr, ptr, ptr, ptr, ptr, i64, ptr, ptr, ptr, ptr, ptr, ptr, ptr, ptr, ptr, ptr, ptr, i32, ptr, ptr }
%struct.PyVarObject = type { %struct._object, i64 }
%struct._object = type { i64, ptr }
%"class.pybind11::handle" = type { ptr }

@PyExc_TypeError = external global ptr, align 8
@.str = private unnamed_addr constant [16 x i8] c"Unexpected type\00", align 1

; Function Attrs: mustprogress nounwind uwtable
define linkonce_odr hidden noundef ptr @_ZNK8pybind116handle3ptrEv(ptr noundef nonnull align 8 dereferenceable(8) %0) #0 comdat align 2 {
  %2 = alloca ptr, align 8
  store ptr %0, ptr %2, align 8
  %3 = load ptr, ptr %2, align 8
  %4 = getelementptr inbounds %"class.pybind11::handle", ptr %3, i32 0, i32 0
  %5 = load ptr, ptr %4, align 8
  ret ptr %5
}

; Function Attrs: mustprogress uwtable
define linkonce_odr hidden void @_ZN8pybind119set_errorERKNS_6handleEPKc(ptr noundef nonnull align 8 dereferenceable(8) %0, ptr noundef %1) #1 comdat {
  %3 = alloca ptr, align 8
  %4 = alloca ptr, align 8
  store ptr %0, ptr %3, align 8
  store ptr %1, ptr %4, align 8
  %5 = load ptr, ptr %3, align 8
  %6 = call noundef ptr @_ZNK8pybind116handle3ptrEv(ptr noundef nonnull align 8 dereferenceable(8) %5)
  %7 = load ptr, ptr %4, align 8
  call void @PyErr_SetString(ptr noundef %6, ptr noundef %7)
  ret void
}

; Function Attrs: mustprogress nounwind uwtable
define linkonce_odr hidden void @_ZN8pybind116handleC2IP7_objectTnNSt9enable_ifIXsr6detail25is_pyobj_ptr_or_nullptr_tIT_EE5valueEiE4typeELi0EEES5_(ptr noundef nonnull align 8 dereferenceable(8) %0, ptr noundef %1) unnamed_addr #0 comdat align 2 {
  %3 = alloca ptr, align 8
  %4 = alloca ptr, align 8
  store ptr %0, ptr %3, align 8
  store ptr %1, ptr %4, align 8
  %5 = load ptr, ptr %3, align 8
  %6 = getelementptr inbounds %"class.pybind11::handle", ptr %5, i32 0, i32 0
  %7 = load ptr, ptr %4, align 8
  store ptr %7, ptr %6, align 8
  ret void
}

; Function Attrs: mustprogress nounwind uwtable
define internal noundef i32 @_ZL17PyType_HasFeatureP11_typeobjectm(ptr noundef %0, i64 noundef %1) #0 {
  %3 = alloca ptr, align 8
  %4 = alloca i64, align 8
  %5 = alloca i64, align 8
  store ptr %0, ptr %3, align 8
  store i64 %1, ptr %4, align 8
  %6 = load ptr, ptr %3, align 8
  %7 = getelementptr inbounds %struct._typeobject, ptr %6, i32 0, i32 19
  %8 = load i64, ptr %7, align 8
  store i64 %8, ptr %5, align 8
  %9 = load i64, ptr %5, align 8
  %10 = load i64, ptr %4, align 8
  %11 = and i64 %9, %10
  %12 = icmp ne i64 %11, 0
  %13 = zext i1 %12 to i32
  ret i32 %13
}

; Function Attrs: mustprogress uwtable
define hidden noundef ptr @_ZN8external6detail4convEP7_object(ptr noundef %0) #1 {
  %2 = alloca ptr, align 8
  %3 = alloca ptr, align 8
  %4 = alloca double, align 8
  %5 = alloca %"class.pybind11::handle", align 8
  store ptr %0, ptr %2, align 8
  store ptr null, ptr %3, align 8
  %6 = load ptr, ptr %2, align 8
  %7 = getelementptr inbounds %struct._object, ptr %6, i32 0, i32 1
  %8 = load ptr, ptr %7, align 8
  %9 = call noundef i32 @_ZL17PyType_HasFeatureP11_typeobjectm(ptr noundef %8, i64 noundef 16777216)
  %10 = icmp ne i32 %9, 0
  br i1 %10, label %11, label %23

11:                                               ; preds = %1
  %12 = load ptr, ptr %2, align 8
  %13 = call double @PyLong_AsDouble(ptr noundef %12)
  store double %13, ptr %4, align 8
  %14 = load double, ptr %4, align 8
  %15 = fcmp oeq double %14, -1.000000e+00
  br i1 %15, label %16, label %19

16:                                               ; preds = %11
  %17 = call ptr @PyErr_Occurred()
  %18 = icmp ne ptr %17, null
  br i1 %18, label %22, label %19

19:                                               ; preds = %16, %11
  %20 = load double, ptr %4, align 8
  %21 = call ptr @PyFloat_FromDouble(double noundef %20)
  store ptr %21, ptr %3, align 8
  br label %22

22:                                               ; preds = %19, %16
  br label %25

23:                                               ; preds = %1
  %24 = load ptr, ptr @PyExc_TypeError, align 8
  call void @_ZN8pybind116handleC2IP7_objectTnNSt9enable_ifIXsr6detail25is_pyobj_ptr_or_nullptr_tIT_EE5valueEiE4typeELi0EEES5_(ptr noundef nonnull align 8 dereferenceable(8) %5, ptr noundef %24)
  call void @_ZN8pybind119set_errorERKNS_6handleEPKc(ptr noundef nonnull align 8 dereferenceable(8) %5, ptr noundef @.str)
  br label %25

25:                                               ; preds = %23, %22
  %26 = load ptr, ptr %3, align 8
  ret ptr %26
}