; Function Attrs: mustprogress uwtable
define hidden noundef ptr @_ZN8external6detail4convEP7_object(ptr noundef %0) local_unnamed_addr #1 {
  %2 = getelementptr inbounds i8, ptr %0, i64 8
  %3 = load ptr, ptr %2, align 8
  %4 = getelementptr i8, ptr %3, i64 168
  %.val = load i64, ptr %4, align 8
  %5 = and i64 %.val, 16777216
  %.not = icmp eq i64 %5, 0
  br i1 %.not, label %13, label %6

6:                                                ; preds = %1
  %7 = tail call double @PyLong_AsDouble(ptr noundef nonnull %0)
  %8 = fcmp oeq double %7, -1.000000e+00
  br i1 %8, label %9, label %11

9:                                                ; preds = %6
  %10 = tail call ptr @PyErr_Occurred()
  %.not5 = icmp eq ptr %10, null
  br i1 %.not5, label %11, label %15

11:                                               ; preds = %9, %6
  %12 = tail call ptr @PyFloat_FromDouble(double noundef %7)
  br label %15

13:                                               ; preds = %1
  %14 = load ptr, ptr @PyExc_TypeError, align 8
  tail call void @PyErr_SetString(ptr noundef %14, ptr noundef nonnull @.str)
  br label %15

15:                                               ; preds = %9, %11, %13
  %.0 = phi ptr [ null, %9 ], [ %12, %11 ], [ null, %13 ]
  ret ptr %.0
}